target datalayout = "e-m:e-p270:32:32-p271:32:32-p272:64:64-i64:64-i128:128-f80:128-n8:16:32:64-S128"
target triple = "x86_64-pc-linux-gnu"

%struct.H5O_cache_ud_t = type { i8, i32, i64, ptr, i8, %struct.H5O_common_cache_ud_t }
%struct.H5O_common_cache_ud_t = type { ptr, i32, i32, ptr, i64 }
%struct.H5O_t = type { %struct.H5C_cache_entry_t, i64, i64, i8, i64, i8, i32, i8, i8, i64, i64, i64, i64, i32, i32, i64, i64, ptr, i64, i64, i64, i64, ptr, i8, ptr }
%struct.H5C_cache_entry_t = type { ptr, i64, i64, ptr, i8, ptr, i8, i8, i8, i8, i32, i8, i8, i8, i8, i8, i32, ptr, i32, i32, i32, i32, i32, i8, i8, ptr, ptr, ptr, ptr, ptr, ptr, i8, i32, i8, i64, ptr, i64, i64, i32, i8, i32, i32, i8, ptr, ptr, ptr }

@H5O_init_g = external global i8, align 1
@H5_libterm_g = external global i8, align 1
@.str.3 = private unnamed_addr constant [102 x i8] c"generated/home/dtcxzyw/WorkSpace/Projects/compilers/llvm-opt-benchmark/bench/hdf5/hdf5/src/H5Ocache.c\00", align 1
@__func__.H5O__cache_get_final_load_size = private unnamed_addr constant [31 x i8] c"H5O__cache_get_final_load_size\00", align 1
@H5E_OHDR_g = external global i64, align 8
@H5E_CANTDECODE_g = external global i64, align 8
@.str.4 = private unnamed_addr constant [39 x i8] c"can't deserialize object header prefix\00", align 1
@H5E_CANTRELEASE_g = external global i64, align 8
@.str.5 = private unnamed_addr constant [28 x i8] c"can't destroy object header\00", align 1

; Function Attrs: nounwind uwtable
define internal i32 @H5O__cache_get_final_load_size(ptr noundef %0, i64 noundef %1, ptr noundef %2, ptr noundef %3) #0 {
  %5 = alloca ptr, align 8
  %6 = alloca i64, align 8
  %7 = alloca ptr, align 8
  %8 = alloca ptr, align 8
  %9 = alloca ptr, align 8
  %10 = alloca i32, align 4
  %11 = alloca i8, align 1
  store ptr %0, ptr %5, align 8, !tbaa !3
  store i64 %1, ptr %6, align 8, !tbaa !13
  store ptr %2, ptr %7, align 8, !tbaa !3
  store ptr %3, ptr %8, align 8, !tbaa !7
  call void @llvm.lifetime.start.p0(i64 8, ptr %9) #7
  %12 = load ptr, ptr %7, align 8, !tbaa !3
  store ptr %12, ptr %9, align 8, !tbaa !15
  call void @llvm.lifetime.start.p0(i64 4, ptr %10) #7
  store i32 0, ptr %10, align 4, !tbaa !17
  call void @llvm.lifetime.start.p0(i64 1, ptr %11) #7
  store i8 0, ptr %11, align 1, !tbaa !9
  %13 = load i8, ptr @H5O_init_g, align 1, !tbaa !9, !range !11, !noundef !12
  %14 = trunc i8 %13 to i1
  br i1 %14, label %19, label %15

15:                                               ; preds = %4
  %16 = load i8, ptr @H5_libterm_g, align 1, !tbaa !9, !range !11, !noundef !12
  %17 = trunc i8 %16 to i1
  %18 = xor i1 %17, true
  br label %19

19:                                               ; preds = %15, %4
  %20 = phi i1 [ true, %4 ], [ %18, %15 ]
  %21 = xor i1 %20, true
  %22 = xor i1 %21, true
  %23 = zext i1 %22 to i32
  %24 = sext i32 %23 to i64
  %25 = call i64 @llvm.expect.i64(i64 %24, i64 1)
  %26 = icmp ne i64 %25, 0
  br i1 %26, label %27, label %135

27:                                               ; preds = %19
  %28 = load ptr, ptr %5, align 8, !tbaa !3
  %29 = load i64, ptr %6, align 8, !tbaa !13
  %30 = load ptr, ptr %9, align 8, !tbaa !15
  %31 = call i32 @H5O__prefix_deserialize(ptr noundef %28, i64 noundef %29, ptr noundef %30)
  %32 = icmp slt i32 %31, 0
  br i1 %32, label %33, label %52

33:                                               ; preds = %27
  br label %34

34:                                               ; preds = %33
  br label %35

35:                                               ; preds = %34
  br label %36

36:                                               ; preds = %35
  %37 = load i64, ptr @H5E_OHDR_g, align 8, !tbaa !13
  %38 = load i64, ptr @H5E_CANTDECODE_g, align 8, !tbaa !13
  %39 = call i32 (ptr, ptr, i32, i64, i64, ptr, ...) @H5E_printf_stack(ptr noundef @.str.3, ptr noundef @__func__.H5O__cache_get_final_load_size, i32 noundef 185, i64 noundef %37, i64 noundef %38, ptr noundef @.str.4)
  br label %40

40:                                               ; preds = %36
  br label %41

41:                                               ; preds = %40
  store i8 1, ptr %11, align 1, !tbaa !9
  %42 = load i8, ptr %11, align 1, !tbaa !9, !range !11, !noundef !12
  %43 = trunc i8 %42 to i1
  %44 = zext i1 %43 to i8
  store i8 %44, ptr %11, align 1, !tbaa !9
  br label %45

45:                                               ; preds = %41
  br label %46

46:                                               ; preds = %45
  br label %47

47:                                               ; preds = %46
  store i32 -1, ptr %10, align 4, !tbaa !17
  br label %134

48:                                               ; No predecessors!
  br label %49

49:                                               ; preds = %48
  br label %50

50:                                               ; preds = %49
  br label %51

51:                                               ; preds = %50
  br label %52

52:                                               ; preds = %51, %27
  %53 = load ptr, ptr %9, align 8, !tbaa !15
  %54 = getelementptr inbounds nuw %struct.H5O_cache_ud_t, ptr %53, i32 0, i32 2
  %55 = load i64, ptr %54, align 8, !tbaa !19
  %56 = load ptr, ptr %9, align 8, !tbaa !15
  %57 = getelementptr inbounds nuw %struct.H5O_cache_ud_t, ptr %56, i32 0, i32 3
  %58 = load ptr, ptr %57, align 8, !tbaa !25
  %59 = getelementptr inbounds nuw %struct.H5O_t, ptr %58, i32 0, i32 7
  %60 = load i8, ptr %59, align 8, !tbaa !26
  %61 = zext i8 %60 to i32
  %62 = icmp eq i32 %61, 1
  br i1 %62, label %63, label %64

63:                                               ; preds = %52
  br label %95

64:                                               ; preds = %52
  %65 = load ptr, ptr %9, align 8, !tbaa !15
  %66 = getelementptr inbounds nuw %struct.H5O_cache_ud_t, ptr %65, i32 0, i32 3
  %67 = load ptr, ptr %66, align 8, !tbaa !25
  %68 = getelementptr inbounds nuw %struct.H5O_t, ptr %67, i32 0, i32 8
  %69 = load i8, ptr %68, align 1, !tbaa !37
  %70 = zext i8 %69 to i32
  %71 = and i32 %70, 32
  %72 = icmp ne i32 %71, 0
  %73 = select i1 %72, i32 16, i32 0
  %74 = add nsw i32 6, %73
  %75 = load ptr, ptr %9, align 8, !tbaa !15
  %76 = getelementptr inbounds nuw %struct.H5O_cache_ud_t, ptr %75, i32 0, i32 3
  %77 = load ptr, ptr %76, align 8, !tbaa !25
  %78 = getelementptr inbounds nuw %struct.H5O_t, ptr %77, i32 0, i32 8
  %79 = load i8, ptr %78, align 1, !tbaa !37
  %80 = zext i8 %79 to i32
  %81 = and i32 %80, 16
  %82 = icmp ne i32 %81, 0
  %83 = select i1 %82, i32 4, i32 0
  %84 = add nsw i32 %74, %83
  %85 = load ptr, ptr %9, align 8, !tbaa !15
  %86 = getelementptr inbounds nuw %struct.H5O_cache_ud_t, ptr %85, i32 0, i32 3
  %87 = load ptr, ptr %86, align 8, !tbaa !25
  %88 = getelementptr inbounds nuw %struct.H5O_t, ptr %87, i32 0, i32 8
  %89 = load i8, ptr %88, align 1, !tbaa !37
  %90 = zext i8 %89 to i32
  %91 = and i32 %90, 3
  %92 = shl i32 1, %91
  %93 = add nsw i32 %84, %92
  %94 = add nsw i32 %93, 4
  br label %95

95:                                               ; preds = %64, %63
  %96 = phi i32 [ 16, %63 ], [ %94, %64 ]
  %97 = sext i32 %96 to i64
  %98 = add i64 %55, %97
  %99 = load ptr, ptr %8, align 8, !tbaa !7
  store i64 %98, ptr %99, align 8, !tbaa !13
  %100 = load ptr, ptr %9, align 8, !tbaa !15
  %101 = getelementptr inbounds nuw %struct.H5O_cache_ud_t, ptr %100, i32 0, i32 3
  %102 = load ptr, ptr %101, align 8, !tbaa !25
  %103 = getelementptr inbounds nuw %struct.H5O_t, ptr %102, i32 0, i32 7
  %104 = load i8, ptr %103, align 8, !tbaa !26
  %105 = load ptr, ptr %9, align 8, !tbaa !15
  %106 = getelementptr inbounds nuw %struct.H5O_cache_ud_t, ptr %105, i32 0, i32 4
  store i8 %104, ptr %106, align 8, !tbaa !38
  %107 = load ptr, ptr %9, align 8, !tbaa !15
  %108 = getelementptr inbounds nuw %struct.H5O_cache_ud_t, ptr %107, i32 0, i32 3
  %109 = load ptr, ptr %108, align 8, !tbaa !25
  %110 = call i32 @H5O__free(ptr noundef %109, i1 noundef zeroext false)
  %111 = icmp slt i32 %110, 0
  br i1 %111, label %112, label %131

112:                                              ; preds = %95
  br label %113

113:                                              ; preds = %112
  br label %114

114:                                              ; preds = %113
  br label %115

115:                                              ; preds = %114
  %116 = load i64, ptr @H5E_OHDR_g, align 8, !tbaa !13
  %117 = load i64, ptr @H5E_CANTRELEASE_g, align 8, !tbaa !13
  %118 = call i32 (ptr, ptr, i32, i64, i64, ptr, ...) @H5E_printf_stack(ptr noundef @.str.3, ptr noundef @__func__.H5O__cache_get_final_load_size, i32 noundef 199, i64 noundef %116, i64 noundef %117, ptr noundef @.str.5)
  br label %119

119:                                              ; preds = %115
  br label %120

120:                                              ; preds = %119
  store i8 1, ptr %11, align 1, !tbaa !9
  %121 = load i8, ptr %11, align 1, !tbaa !9, !range !11, !noundef !12
  %122 = trunc i8 %121 to i1
  %123 = zext i1 %122 to i8
  store i8 %123, ptr %11, align 1, !tbaa !9
  br label %124

124:                                              ; preds = %120
  br label %125

125:                                              ; preds = %124
  br label %126

126:                                              ; preds = %125
  store i32 -1, ptr %10, align 4, !tbaa !17
  br label %134

127:                                              ; No predecessors!
  br label %128

128:                                              ; preds = %127
  br label %129

129:                                              ; preds = %128
  br label %130

130:                                              ; preds = %129
  br label %131

131:                                              ; preds = %130, %95
  %132 = load ptr, ptr %9, align 8, !tbaa !15
  %133 = getelementptr inbounds nuw %struct.H5O_cache_ud_t, ptr %132, i32 0, i32 3
  store ptr null, ptr %133, align 8, !tbaa !25
  br label %134

134:                                              ; preds = %131, %126, %47
  br label %135

135:                                              ; preds = %134, %19
  %136 = load i32, ptr %10, align 4, !tbaa !17
  call void @llvm.lifetime.end.p0(i64 1, ptr %11) #7
  call void @llvm.lifetime.end.p0(i64 4, ptr %10) #7
  call void @llvm.lifetime.end.p0(i64 8, ptr %9) #7
  ret i32 %136
}