; Function Attrs: nounwind uwtable
define internal range(i32 -1, 1) i32 @H5O__cache_get_final_load_size(ptr noundef %0, i64 noundef %1, ptr noundef captures(none) %2, ptr noundef writeonly captures(none) %3) #1 {
  %5 = load i8, ptr @H5O_init_g, align 1, !tbaa !3, !range !7, !noundef !8
  %6 = trunc nuw i8 %5 to i1
  %7 = load i8, ptr @H5_libterm_g, align 1, !range !7
  %8 = trunc nuw i8 %7 to i1
  %9 = xor i1 %8, true
  %10 = select i1 %6, i1 true, i1 %9
  br i1 %10, label %11, label %51, !prof !9

11:                                               ; preds = %4
  %12 = tail call fastcc i32 @H5O__prefix_deserialize(ptr noundef %0, i64 noundef %1, ptr noundef %2)
  %13 = icmp slt i32 %12, 0
  br i1 %13, label %14, label %18

14:                                               ; preds = %11
  %15 = load i64, ptr @H5E_OHDR_g, align 8, !tbaa !10
  %16 = load i64, ptr @H5E_CANTDECODE_g, align 8, !tbaa !10
  %17 = tail call i32 (ptr, ptr, i32, i64, i64, ptr, ...) @H5E_printf_stack(ptr noundef nonnull @.str.3, ptr noundef nonnull @__func__.H5O__cache_get_final_load_size, i32 noundef 185, i64 noundef %15, i64 noundef %16, ptr noundef nonnull @.str.4) #9
  br label %51

18:                                               ; preds = %11
  %19 = getelementptr inbounds nuw i8, ptr %2, i64 8
  %20 = load i64, ptr %19, align 8, !tbaa !12
  %21 = getelementptr inbounds nuw i8, ptr %2, i64 16
  %22 = load ptr, ptr %21, align 8, !tbaa !20
  %23 = getelementptr inbounds nuw i8, ptr %22, i64 288
  %24 = load i8, ptr %23, align 8, !tbaa !21
  %25 = icmp eq i8 %24, 1
  br i1 %25, label %40, label %26

26:                                               ; preds = %18
  %27 = getelementptr inbounds nuw i8, ptr %22, i64 289
  %28 = load i8, ptr %27, align 1, !tbaa !33
  %29 = zext i8 %28 to i32
  %30 = lshr i32 %29, 1
  %31 = and i32 %30, 16
  %32 = lshr i32 %29, 2
  %33 = and i32 %32, 4
  %34 = and i32 %29, 3
  %35 = shl nuw nsw i32 1, %34
  %36 = or disjoint i32 %31, %33
  %37 = or disjoint i32 %36, 10
  %38 = add nuw nsw i32 %37, %35
  %39 = zext nneg i32 %38 to i64
  br label %40

40:                                               ; preds = %18, %26
  %41 = phi i64 [ %39, %26 ], [ 16, %18 ]
  %42 = add i64 %41, %20
  store i64 %42, ptr %3, align 8, !tbaa !10
  %43 = getelementptr inbounds nuw i8, ptr %2, i64 24
  store i8 %24, ptr %43, align 8, !tbaa !34
  %44 = tail call i32 @H5O__free(ptr noundef nonnull %22, i1 noundef zeroext false) #9
  %45 = icmp slt i32 %44, 0
  br i1 %45, label %46, label %50

46:                                               ; preds = %40
  %47 = load i64, ptr @H5E_OHDR_g, align 8, !tbaa !10
  %48 = load i64, ptr @H5E_CANTRELEASE_g, align 8, !tbaa !10
  %49 = tail call i32 (ptr, ptr, i32, i64, i64, ptr, ...) @H5E_printf_stack(ptr noundef nonnull @.str.3, ptr noundef nonnull @__func__.H5O__cache_get_final_load_size, i32 noundef 199, i64 noundef %47, i64 noundef %48, ptr noundef nonnull @.str.5) #9
  br label %51

50:                                               ; preds = %40
  store ptr null, ptr %21, align 8, !tbaa !20
  br label %51

51:                                               ; preds = %14, %46, %50, %4
  %.0 = phi i32 [ -1, %14 ], [ -1, %46 ], [ 0, %50 ], [ 0, %4 ]
  ret i32 %.0
}